(dp1
S'nombre'
p2
(dp3
S'type'
p4
S'string'
p5
sS'sortable'
p6
I2
sS'sql'
p7
S'CHAR(512) NOT NULL'
p8
ssS'idestado'
p9
(dp10
g4
S'reference tbl_estado'
p11
sg6
I4
sg7
S'INTEGER REFERENCES tbl_estado(id) ON DELETE CASCADE'
p12
ssS'id'
p13
(dp14
g4
g13
sg6
I1
sg7
S'INTEGER PRIMARY KEY AUTOINCREMENT'
p15
ssS'salidapdl'
p16
(dp17
g4
S'reference tbl_pdl'
p18
sg6
I3
sg7
S'INTEGER REFERENCES tbl_pdl(id) ON DELETE CASCADE'
p19
ss.