(dp1
S'dirpcl'
p2
(dp3
S'type'
p4
S'text'
p5
sS'sortable'
p6
I5
sS'sql'
p7
S'TEXT NOT NULL'
p8
ssS'nombre'
p9
(dp10
g4
g5
sg6
I2
sg7
S'TEXT NOT NULL'
p11
ssS'dirpdf'
p12
(dp13
g4
g5
sg6
I3
sg7
S'TEXT NOT NULL'
p14
ssS'estado'
p15
(dp16
g4
S'reference tbl_estado'
p17
sg6
I4
sg7
S'INTEGER REFERENCES tbl_estado(id) ON DELETE CASCADE'
p18
ssS'id'
p19
(dp20
g4
g19
sg6
I1
sg7
S'INTEGER PRIMARY KEY AUTOINCREMENT'
p21
ss.