(dp1
S'descripcion'
p2
(dp3
S'type'
p4
S'string'
p5
sS'sortable'
p6
I4
sS'sql'
p7
S'CHAR(512) NOT NULL'
p8
ssS'idgrupo'
p9
(dp10
g4
S'integer'
p11
sg6
I2
sg7
S'INTEGER NOT NULL'
p12
ssS'orden'
p13
(dp14
g4
g11
sg6
I5
sg7
S'INTEGER NOT NULL'
p15
ssS'id'
p16
(dp17
g4
g16
sg6
I1
sg7
S'INTEGER PRIMARY KEY AUTOINCREMENT'
p18
ssS'valor'
p19
(dp20
g4
g11
sg6
I3
sg7
S'INTEGER NOT NULL'
p21
ss.